target datalayout = "e-m:e-p270:32:32-p271:32:32-p272:64:64-i64:64-i128:128-f80:128-n8:16:32:64-S128"
target triple = "x86_64-pc-linux-gnu"

%struct.QMetaObject = type { %"struct.QMetaObject::Data" }
%"struct.QMetaObject::Data" = type { %"struct.QMetaObject::SuperData", ptr, ptr, ptr, ptr, ptr, ptr }
%"struct.QMetaObject::SuperData" = type { ptr }
%class.QString = type { %struct.QArrayDataPointer.0 }
%struct.QArrayDataPointer.0 = type { ptr, ptr, i64 }
%class.QAbstractItemModel = type { %class.QObject }
%class.QObject = type { ptr, %class.QScopedPointer }
%class.QScopedPointer = type { ptr }
%class.QSortFilterProxyModel = type { %class.QAbstractProxyModel }
%class.QAbstractProxyModel = type { %class.QAbstractItemModel }
%class.ModulePrefsModel = type { %class.QSortFilterProxyModel, %class.QString }

@.str.7 = private unnamed_addr constant [9 x i8] c"Advanced\00", align 1
@.str.8 = private unnamed_addr constant [11 x i8] c"Appearance\00", align 1
@.str.9 = private unnamed_addr constant [7 x i8] c"Layout\00", align 1
@.str.10 = private unnamed_addr constant [8 x i8] c"Columns\00", align 1
@.str.11 = private unnamed_addr constant [16 x i8] c"Font and Colors\00", align 1
@.str.12 = private unnamed_addr constant [8 x i8] c"Capture\00", align 1
@.str.13 = private unnamed_addr constant [7 x i8] c"Expert\00", align 1
@.str.14 = private unnamed_addr constant [15 x i8] c"Filter Buttons\00", align 1
@.str.15 = private unnamed_addr constant [9 x i8] c"RSA Keys\00", align 1
@_ZN10PrefsModel16staticMetaObjectE = external global %struct.QMetaObject, align 8

; Function Attrs: inlinehint mustprogress nounwind null_pointer_is_valid sspstrong uwtable
define linkonce_odr void @_ZSt4swapIxENSt9enable_ifIXsr6__and_ISt6__not_ISt15__is_tuple_likeIT_EESt21is_move_constructibleIS3_ESt18is_move_assignableIS3_EEE5valueEvE4typeERS3_SC_(ptr noundef align 8 dereferenceable(8) %0, ptr noundef align 8 dereferenceable(8) %1) #4 comdat {
  %3 = alloca ptr, align 8
  %4 = alloca ptr, align 8
  %5 = alloca i64, align 8
  store ptr %0, ptr %3, align 8
  store ptr %1, ptr %4, align 8
  call void @llvm.lifetime.start.p0(i64 8, ptr %5) #21
  %6 = load ptr, ptr %3, align 8
  %7 = load i64, ptr %6, align 8
  store i64 %7, ptr %5, align 8
  %8 = load ptr, ptr %4, align 8
  %9 = load i64, ptr %8, align 8
  %10 = load ptr, ptr %3, align 8
  store i64 %9, ptr %10, align 8
  %11 = load i64, ptr %5, align 8
  %12 = load ptr, ptr %4, align 8
  store i64 %11, ptr %12, align 8
  call void @llvm.lifetime.end.p0(i64 8, ptr %5) #21
  ret void
}

; Function Attrs: inlinehint mustprogress nounwind null_pointer_is_valid sspstrong uwtable
define linkonce_odr void @_Z11qt_ptr_swapIDsEvRPT_S2_(ptr noundef align 8 dereferenceable(8) %0, ptr noundef align 8 dereferenceable(8) %1) #4 comdat {
  %3 = alloca ptr, align 8
  %4 = alloca ptr, align 8
  %5 = alloca ptr, align 8
  store ptr %0, ptr %3, align 8
  store ptr %1, ptr %4, align 8
  call void @llvm.lifetime.start.p0(i64 8, ptr %5) #21
  %6 = load ptr, ptr %3, align 8
  %7 = load ptr, ptr %6, align 8
  store ptr %7, ptr %5, align 8
  %8 = load ptr, ptr %4, align 8
  %9 = load ptr, ptr %8, align 8
  %10 = load ptr, ptr %3, align 8
  store ptr %9, ptr %10, align 8
  %11 = load ptr, ptr %5, align 8
  %12 = load ptr, ptr %4, align 8
  store ptr %11, ptr %12, align 8
  call void @llvm.lifetime.end.p0(i64 8, ptr %5) #21
  ret void
}

; Function Attrs: inlinehint mustprogress nounwind null_pointer_is_valid sspstrong uwtable
define linkonce_odr void @_Z11qt_ptr_swapI15QTypedArrayDataIDsEEvRPT_S4_(ptr noundef align 8 dereferenceable(8) %0, ptr noundef align 8 dereferenceable(8) %1) #4 comdat {
  %3 = alloca ptr, align 8
  %4 = alloca ptr, align 8
  %5 = alloca ptr, align 8
  store ptr %0, ptr %3, align 8
  store ptr %1, ptr %4, align 8
  call void @llvm.lifetime.start.p0(i64 8, ptr %5) #21
  %6 = load ptr, ptr %3, align 8
  %7 = load ptr, ptr %6, align 8
  store ptr %7, ptr %5, align 8
  %8 = load ptr, ptr %4, align 8
  %9 = load ptr, ptr %8, align 8
  %10 = load ptr, ptr %3, align 8
  store ptr %9, ptr %10, align 8
  %11 = load ptr, ptr %5, align 8
  %12 = load ptr, ptr %4, align 8
  store ptr %11, ptr %12, align 8
  call void @llvm.lifetime.end.p0(i64 8, ptr %5) #21
  ret void
}

; Function Attrs: mustprogress nounwind null_pointer_is_valid sspstrong uwtable
define linkonce_odr void @_ZN17QArrayDataPointerIDsE4swapERS0_(ptr noundef align 8 dereferenceable_or_null(24) %0, ptr noundef align 8 dereferenceable(24) %1) #2 comdat align 2 {
  %3 = alloca ptr, align 8
  %4 = alloca ptr, align 8
  store ptr %0, ptr %3, align 8
  store ptr %1, ptr %4, align 8
  %5 = load ptr, ptr %3, align 8
  %6 = getelementptr inbounds nuw %struct.QArrayDataPointer.0, ptr %5, i32 0, i32 0
  %7 = load ptr, ptr %4, align 8
  %8 = getelementptr inbounds nuw %struct.QArrayDataPointer.0, ptr %7, i32 0, i32 0
  call void @_Z11qt_ptr_swapI15QTypedArrayDataIDsEEvRPT_S4_(ptr noundef align 8 dereferenceable(8) %6, ptr noundef align 8 dereferenceable(8) %8) #21
  %9 = getelementptr inbounds nuw %struct.QArrayDataPointer.0, ptr %5, i32 0, i32 1
  %10 = load ptr, ptr %4, align 8
  %11 = getelementptr inbounds nuw %struct.QArrayDataPointer.0, ptr %10, i32 0, i32 1
  call void @_Z11qt_ptr_swapIDsEvRPT_S2_(ptr noundef align 8 dereferenceable(8) %9, ptr noundef align 8 dereferenceable(8) %11) #21
  %12 = getelementptr inbounds nuw %struct.QArrayDataPointer.0, ptr %5, i32 0, i32 2
  %13 = load ptr, ptr %4, align 8
  %14 = getelementptr inbounds nuw %struct.QArrayDataPointer.0, ptr %13, i32 0, i32 2
  call void @_ZSt4swapIxENSt9enable_ifIXsr6__and_ISt6__not_ISt15__is_tuple_likeIT_EESt21is_move_constructibleIS3_ESt18is_move_assignableIS3_EEE5valueEvE4typeERS3_SC_(ptr noundef align 8 dereferenceable(8) %12, ptr noundef align 8 dereferenceable(8) %14) #21
  ret void
}

; Function Attrs: mustprogress nounwind null_pointer_is_valid sspstrong uwtable
define linkonce_odr void @_ZN7QString4swapERS_(ptr noundef align 8 dereferenceable_or_null(24) %0, ptr noundef align 8 dereferenceable(24) %1) #2 comdat align 2 {
  %3 = alloca ptr, align 8
  %4 = alloca ptr, align 8
  store ptr %0, ptr %3, align 8
  store ptr %1, ptr %4, align 8
  %5 = load ptr, ptr %3, align 8
  %6 = getelementptr inbounds nuw %class.QString, ptr %5, i32 0, i32 0
  %7 = load ptr, ptr %4, align 8
  %8 = getelementptr inbounds nuw %class.QString, ptr %7, i32 0, i32 0
  call void @_ZN17QArrayDataPointerIDsE4swapERS0_(ptr noundef align 8 dereferenceable_or_null(24) %6, ptr noundef align 8 dereferenceable(24) %8) #21
  ret void
}

; Function Attrs: mustprogress nounwind null_pointer_is_valid sspstrong uwtable
define linkonce_odr void @_ZN17QArrayDataPointerIDsEC2Ev(ptr noundef align 8 dereferenceable_or_null(24) %0) unnamed_addr #2 comdat align 2 {
  %2 = alloca ptr, align 8
  store ptr %0, ptr %2, align 8
  %3 = load ptr, ptr %2, align 8
  %4 = getelementptr inbounds nuw %struct.QArrayDataPointer.0, ptr %3, i32 0, i32 0
  store ptr null, ptr %4, align 8
  %5 = getelementptr inbounds nuw %struct.QArrayDataPointer.0, ptr %3, i32 0, i32 1
  store ptr null, ptr %5, align 8
  %6 = getelementptr inbounds nuw %struct.QArrayDataPointer.0, ptr %3, i32 0, i32 2
  store i64 0, ptr %6, align 8
  ret void
}

; Function Attrs: mustprogress nounwind null_pointer_is_valid sspstrong uwtable
define linkonce_odr noundef align 8 dereferenceable(24) ptr @_ZN7QStringaSEOS_(ptr noundef align 8 dereferenceable_or_null(24) %0, ptr noundef align 8 dereferenceable(24) %1) #2 comdat align 2 {
  %3 = alloca ptr, align 8
  %4 = alloca ptr, align 8
  store ptr %0, ptr %3, align 8
  store ptr %1, ptr %4, align 8
  %5 = load ptr, ptr %3, align 8
  %6 = load ptr, ptr %4, align 8
  call void @_ZN7QString4swapERS_(ptr noundef align 8 dereferenceable_or_null(24) %5, ptr noundef align 8 dereferenceable(24) %6) #21
  ret ptr %5
}

; Function Attrs: inlinehint mustprogress null_pointer_is_valid sspstrong uwtable
define linkonce_odr void @_ZN10PrefsModel2trEPKcS1_i(ptr dead_on_unwind noalias writable sret(%class.QString) align 8 %0, ptr noundef %1, ptr noundef %2, i32 noundef %3) #3 comdat align 2 {
  %5 = alloca ptr, align 8
  %6 = alloca ptr, align 8
  %7 = alloca ptr, align 8
  %8 = alloca i32, align 4
  store ptr %0, ptr %5, align 8
  store ptr %1, ptr %6, align 8
  store ptr %2, ptr %7, align 8
  store i32 %3, ptr %8, align 4
  %9 = load ptr, ptr %6, align 8
  %10 = load ptr, ptr %7, align 8
  %11 = load i32, ptr %8, align 4
  call void @_ZNK11QMetaObject2trEPKcS1_i(ptr dead_on_unwind writable sret(%class.QString) align 8 %0, ptr noundef align 8 dereferenceable_or_null(56) @_ZN10PrefsModel16staticMetaObjectE, ptr noundef %9, ptr noundef %10, i32 noundef %11)
  ret void
}

; Function Attrs: inlinehint mustprogress nounwind null_pointer_is_valid sspstrong uwtable
define linkonce_odr void @_ZN7QStringC2Ev(ptr noundef align 8 dereferenceable_or_null(24) %0) unnamed_addr #4 comdat align 2 {
  %2 = alloca ptr, align 8
  store ptr %0, ptr %2, align 8
  %3 = load ptr, ptr %2, align 8
  %4 = getelementptr inbounds nuw %class.QString, ptr %3, i32 0, i32 0
  call void @_ZN17QArrayDataPointerIDsEC2Ev(ptr noundef align 8 dereferenceable_or_null(24) %4) #21
  ret void
}

; Function Attrs: mustprogress null_pointer_is_valid sspstrong uwtable
define void @_ZN10PrefsModel12typeToStringEi(ptr dead_on_unwind noalias writable sret(%class.QString) align 8 %0, i32 noundef %1) #0 align 2 personality ptr @__gxx_personality_v0 {
  %3 = alloca ptr, align 8
  %4 = alloca i32, align 4
  %5 = alloca i1, align 1
  %6 = alloca %class.QString, align 8
  %7 = alloca ptr, align 8
  %8 = alloca i32, align 4
  %9 = alloca %class.QString, align 8
  %10 = alloca %class.QString, align 8
  %11 = alloca %class.QString, align 8
  %12 = alloca %class.QString, align 8
  %13 = alloca %class.QString, align 8
  %14 = alloca %class.QString, align 8
  %15 = alloca %class.QString, align 8
  %16 = alloca %class.QString, align 8
  store ptr %0, ptr %3, align 8
  store i32 %1, ptr %4, align 4
  store i1 false, ptr %5, align 1
  call void @_ZN7QStringC2Ev(ptr noundef align 8 dereferenceable_or_null(24) %0) #21
  %17 = load i32, ptr %4, align 4
  switch i32 %17, label %81 [
    i32 256, label %18
    i32 257, label %25
    i32 258, label %32
    i32 259, label %39
    i32 260, label %46
    i32 261, label %53
    i32 262, label %60
    i32 263, label %67
    i32 264, label %74
  ]

18:                                               ; preds = %2
  call void @llvm.lifetime.start.p0(i64 24, ptr %6) #21
  invoke void @_ZN10PrefsModel2trEPKcS1_i(ptr dead_on_unwind writable sret(%class.QString) align 8 %6, ptr noundef @.str.7, ptr noundef null, i32 noundef -1)
          to label %19 unwind label %21

19:                                               ; preds = %18
  %20 = call noundef align 8 dereferenceable(24) ptr @_ZN7QStringaSEOS_(ptr noundef align 8 dereferenceable_or_null(24) %0, ptr noundef align 8 dereferenceable(24) %6) #21
  call void @_ZN7QStringD2Ev(ptr noundef align 8 dereferenceable_or_null(24) %6) #21
  call void @llvm.lifetime.end.p0(i64 24, ptr %6) #21
  br label %81

21:                                               ; preds = %18
  %22 = landingpad { ptr, i32 }
          cleanup
  %23 = extractvalue { ptr, i32 } %22, 0
  store ptr %23, ptr %7, align 8
  %24 = extractvalue { ptr, i32 } %22, 1
  store i32 %24, ptr %8, align 4
  call void @llvm.lifetime.end.p0(i64 24, ptr %6) #21
  br label %85

25:                                               ; preds = %2
  call void @llvm.lifetime.start.p0(i64 24, ptr %9) #21
  invoke void @_ZN10PrefsModel2trEPKcS1_i(ptr dead_on_unwind writable sret(%class.QString) align 8 %9, ptr noundef @.str.8, ptr noundef null, i32 noundef -1)
          to label %26 unwind label %28

26:                                               ; preds = %25
  %27 = call noundef align 8 dereferenceable(24) ptr @_ZN7QStringaSEOS_(ptr noundef align 8 dereferenceable_or_null(24) %0, ptr noundef align 8 dereferenceable(24) %9) #21
  call void @_ZN7QStringD2Ev(ptr noundef align 8 dereferenceable_or_null(24) %9) #21
  call void @llvm.lifetime.end.p0(i64 24, ptr %9) #21
  br label %81

28:                                               ; preds = %25
  %29 = landingpad { ptr, i32 }
          cleanup
  %30 = extractvalue { ptr, i32 } %29, 0
  store ptr %30, ptr %7, align 8
  %31 = extractvalue { ptr, i32 } %29, 1
  store i32 %31, ptr %8, align 4
  call void @llvm.lifetime.end.p0(i64 24, ptr %9) #21
  br label %85

32:                                               ; preds = %2
  call void @llvm.lifetime.start.p0(i64 24, ptr %10) #21
  invoke void @_ZN10PrefsModel2trEPKcS1_i(ptr dead_on_unwind writable sret(%class.QString) align 8 %10, ptr noundef @.str.9, ptr noundef null, i32 noundef -1)
          to label %33 unwind label %35

33:                                               ; preds = %32
  %34 = call noundef align 8 dereferenceable(24) ptr @_ZN7QStringaSEOS_(ptr noundef align 8 dereferenceable_or_null(24) %0, ptr noundef align 8 dereferenceable(24) %10) #21
  call void @_ZN7QStringD2Ev(ptr noundef align 8 dereferenceable_or_null(24) %10) #21
  call void @llvm.lifetime.end.p0(i64 24, ptr %10) #21
  br label %81

35:                                               ; preds = %32
  %36 = landingpad { ptr, i32 }
          cleanup
  %37 = extractvalue { ptr, i32 } %36, 0
  store ptr %37, ptr %7, align 8
  %38 = extractvalue { ptr, i32 } %36, 1
  store i32 %38, ptr %8, align 4
  call void @llvm.lifetime.end.p0(i64 24, ptr %10) #21
  br label %85

39:                                               ; preds = %2
  call void @llvm.lifetime.start.p0(i64 24, ptr %11) #21
  invoke void @_ZN10PrefsModel2trEPKcS1_i(ptr dead_on_unwind writable sret(%class.QString) align 8 %11, ptr noundef @.str.10, ptr noundef null, i32 noundef -1)
          to label %40 unwind label %42

40:                                               ; preds = %39
  %41 = call noundef align 8 dereferenceable(24) ptr @_ZN7QStringaSEOS_(ptr noundef align 8 dereferenceable_or_null(24) %0, ptr noundef align 8 dereferenceable(24) %11) #21
  call void @_ZN7QStringD2Ev(ptr noundef align 8 dereferenceable_or_null(24) %11) #21
  call void @llvm.lifetime.end.p0(i64 24, ptr %11) #21
  br label %81

42:                                               ; preds = %39
  %43 = landingpad { ptr, i32 }
          cleanup
  %44 = extractvalue { ptr, i32 } %43, 0
  store ptr %44, ptr %7, align 8
  %45 = extractvalue { ptr, i32 } %43, 1
  store i32 %45, ptr %8, align 4
  call void @llvm.lifetime.end.p0(i64 24, ptr %11) #21
  br label %85

46:                                               ; preds = %2
  call void @llvm.lifetime.start.p0(i64 24, ptr %12) #21
  invoke void @_ZN10PrefsModel2trEPKcS1_i(ptr dead_on_unwind writable sret(%class.QString) align 8 %12, ptr noundef @.str.11, ptr noundef null, i32 noundef -1)
          to label %47 unwind label %49

47:                                               ; preds = %46
  %48 = call noundef align 8 dereferenceable(24) ptr @_ZN7QStringaSEOS_(ptr noundef align 8 dereferenceable_or_null(24) %0, ptr noundef align 8 dereferenceable(24) %12) #21
  call void @_ZN7QStringD2Ev(ptr noundef align 8 dereferenceable_or_null(24) %12) #21
  call void @llvm.lifetime.end.p0(i64 24, ptr %12) #21
  br label %81

49:                                               ; preds = %46
  %50 = landingpad { ptr, i32 }
          cleanup
  %51 = extractvalue { ptr, i32 } %50, 0
  store ptr %51, ptr %7, align 8
  %52 = extractvalue { ptr, i32 } %50, 1
  store i32 %52, ptr %8, align 4
  call void @llvm.lifetime.end.p0(i64 24, ptr %12) #21
  br label %85

53:                                               ; preds = %2
  call void @llvm.lifetime.start.p0(i64 24, ptr %13) #21
  invoke void @_ZN10PrefsModel2trEPKcS1_i(ptr dead_on_unwind writable sret(%class.QString) align 8 %13, ptr noundef @.str.12, ptr noundef null, i32 noundef -1)
          to label %54 unwind label %56

54:                                               ; preds = %53
  %55 = call noundef align 8 dereferenceable(24) ptr @_ZN7QStringaSEOS_(ptr noundef align 8 dereferenceable_or_null(24) %0, ptr noundef align 8 dereferenceable(24) %13) #21
  call void @_ZN7QStringD2Ev(ptr noundef align 8 dereferenceable_or_null(24) %13) #21
  call void @llvm.lifetime.end.p0(i64 24, ptr %13) #21
  br label %81

56:                                               ; preds = %53
  %57 = landingpad { ptr, i32 }
          cleanup
  %58 = extractvalue { ptr, i32 } %57, 0
  store ptr %58, ptr %7, align 8
  %59 = extractvalue { ptr, i32 } %57, 1
  store i32 %59, ptr %8, align 4
  call void @llvm.lifetime.end.p0(i64 24, ptr %13) #21
  br label %85

60:                                               ; preds = %2
  call void @llvm.lifetime.start.p0(i64 24, ptr %14) #21
  invoke void @_ZN10PrefsModel2trEPKcS1_i(ptr dead_on_unwind writable sret(%class.QString) align 8 %14, ptr noundef @.str.13, ptr noundef null, i32 noundef -1)
          to label %61 unwind label %63

61:                                               ; preds = %60
  %62 = call noundef align 8 dereferenceable(24) ptr @_ZN7QStringaSEOS_(ptr noundef align 8 dereferenceable_or_null(24) %0, ptr noundef align 8 dereferenceable(24) %14) #21
  call void @_ZN7QStringD2Ev(ptr noundef align 8 dereferenceable_or_null(24) %14) #21
  call void @llvm.lifetime.end.p0(i64 24, ptr %14) #21
  br label %81

63:                                               ; preds = %60
  %64 = landingpad { ptr, i32 }
          cleanup
  %65 = extractvalue { ptr, i32 } %64, 0
  store ptr %65, ptr %7, align 8
  %66 = extractvalue { ptr, i32 } %64, 1
  store i32 %66, ptr %8, align 4
  call void @llvm.lifetime.end.p0(i64 24, ptr %14) #21
  br label %85

67:                                               ; preds = %2
  call void @llvm.lifetime.start.p0(i64 24, ptr %15) #21
  invoke void @_ZN10PrefsModel2trEPKcS1_i(ptr dead_on_unwind writable sret(%class.QString) align 8 %15, ptr noundef @.str.14, ptr noundef null, i32 noundef -1)
          to label %68 unwind label %70

68:                                               ; preds = %67
  %69 = call noundef align 8 dereferenceable(24) ptr @_ZN7QStringaSEOS_(ptr noundef align 8 dereferenceable_or_null(24) %0, ptr noundef align 8 dereferenceable(24) %15) #21
  call void @_ZN7QStringD2Ev(ptr noundef align 8 dereferenceable_or_null(24) %15) #21
  call void @llvm.lifetime.end.p0(i64 24, ptr %15) #21
  br label %81

70:                                               ; preds = %67
  %71 = landingpad { ptr, i32 }
          cleanup
  %72 = extractvalue { ptr, i32 } %71, 0
  store ptr %72, ptr %7, align 8
  %73 = extractvalue { ptr, i32 } %71, 1
  store i32 %73, ptr %8, align 4
  call void @llvm.lifetime.end.p0(i64 24, ptr %15) #21
  br label %85

74:                                               ; preds = %2
  call void @llvm.lifetime.start.p0(i64 24, ptr %16) #21
  invoke void @_ZN10PrefsModel2trEPKcS1_i(ptr dead_on_unwind writable sret(%class.QString) align 8 %16, ptr noundef @.str.15, ptr noundef null, i32 noundef -1)
          to label %75 unwind label %77

75:                                               ; preds = %74
  %76 = call noundef align 8 dereferenceable(24) ptr @_ZN7QStringaSEOS_(ptr noundef align 8 dereferenceable_or_null(24) %0, ptr noundef align 8 dereferenceable(24) %16) #21
  call void @_ZN7QStringD2Ev(ptr noundef align 8 dereferenceable_or_null(24) %16) #21
  call void @llvm.lifetime.end.p0(i64 24, ptr %16) #21
  br label %81

77:                                               ; preds = %74
  %78 = landingpad { ptr, i32 }
          cleanup
  %79 = extractvalue { ptr, i32 } %78, 0
  store ptr %79, ptr %7, align 8
  %80 = extractvalue { ptr, i32 } %78, 1
  store i32 %80, ptr %8, align 4
  call void @llvm.lifetime.end.p0(i64 24, ptr %16) #21
  br label %85

81:                                               ; preds = %2, %75, %68, %61, %54, %47, %40, %33, %26, %19
  store i1 true, ptr %5, align 1
  %82 = load i1, ptr %5, align 1
  br i1 %82, label %84, label %83

83:                                               ; preds = %81
  call void @_ZN7QStringD2Ev(ptr noundef align 8 dereferenceable_or_null(24) %0) #21
  br label %84

84:                                               ; preds = %83, %81
  ret void

85:                                               ; preds = %77, %70, %63, %56, %49, %42, %35, %28, %21
  call void @_ZN7QStringD2Ev(ptr noundef align 8 dereferenceable_or_null(24) %0) #21
  br label %86

86:                                               ; preds = %85
  %87 = load ptr, ptr %7, align 8
  %88 = load i32, ptr %8, align 4
  %89 = insertvalue { ptr, i32 } poison, ptr %87, 0
  %90 = insertvalue { ptr, i32 } %89, i32 %88, 1
  resume { ptr, i32 } %90
}

; Function Attrs: mustprogress null_pointer_is_valid sspstrong uwtable
define void @_ZN16ModulePrefsModelC2EP7QObject(ptr noundef align 8 dereferenceable_or_null(40) %0, ptr noundef %1) unnamed_addr #0 align 2 personality ptr @__gxx_personality_v0 {
  %3 = alloca ptr, align 8
  %4 = alloca ptr, align 8
  %5 = alloca ptr, align 8
  %6 = alloca i32, align 4
  store ptr %0, ptr %3, align 8
  store ptr %1, ptr %4, align 8
  %7 = load ptr, ptr %3, align 8
  %8 = load ptr, ptr %4, align 8
  call void @_ZN21QSortFilterProxyModelC2EP7QObject(ptr noundef align 8 dereferenceable_or_null(16) %7, ptr noundef %8)
  store ptr getelementptr inbounds inrange(-16, 456) ({ [59 x ptr] }, ptr @_ZTV16ModulePrefsModel, i32 0, i32 0, i32 2), ptr %7, align 8
  %9 = getelementptr inbounds nuw %class.ModulePrefsModel, ptr %7, i32 0, i32 1
  invoke void @_ZN10PrefsModel12typeToStringEi(ptr dead_on_unwind writable sret(%class.QString) align 8 %9, i32 noundef 256)
          to label %10 unwind label %11

10:                                               ; preds = %2
  ret void

11:                                               ; preds = %2
  %12 = landingpad { ptr, i32 }
          cleanup
  %13 = extractvalue { ptr, i32 } %12, 0
  store ptr %13, ptr %5, align 8
  %14 = extractvalue { ptr, i32 } %12, 1
  store i32 %14, ptr %6, align 4
  call void @_ZN21QSortFilterProxyModelD2Ev(ptr noundef align 8 dereferenceable_or_null(16) %7) #21
  br label %15

15:                                               ; preds = %11
  %16 = load ptr, ptr %5, align 8
  %17 = load i32, ptr %6, align 4
  %18 = insertvalue { ptr, i32 } poison, ptr %16, 0
  %19 = insertvalue { ptr, i32 } %18, i32 %17, 1
  resume { ptr, i32 } %19
}