; Function Attrs: mustprogress null_pointer_is_valid sspstrong uwtable
define void @_ZN16ModulePrefsModelC2EP7QObject(ptr noundef align 8 dereferenceable_or_null(40) %0, ptr noundef %1) unnamed_addr #0 align 2 personality ptr @__gxx_personality_v0 {
  %3 = alloca %class.QString, align 8
  tail call void @_ZN21QSortFilterProxyModelC2EP7QObject(ptr noundef align 8 dereferenceable_or_null(16) %0, ptr noundef %1)
  store ptr getelementptr inbounds nuw inrange(-16, 456) (i8, ptr @_ZTV16ModulePrefsModel, i64 16), ptr %0, align 8
  %4 = getelementptr inbounds nuw i8, ptr %0, i64 16
  tail call void @llvm.experimental.noalias.scope.decl(metadata !108)
  tail call void @llvm.memset.p0.i64(ptr noundef nonnull align 8 dereferenceable(24) dereferenceable_or_null(24) %4, i8 0, i64 24, i1 false), !alias.scope !108
  call void @llvm.lifetime.start.p0(i64 24, ptr nonnull %3) #26, !noalias !108
  invoke void @_ZNK11QMetaObject2trEPKcS1_i(ptr dead_on_unwind nonnull writable sret(%class.QString) align 8 %3, ptr noundef nonnull align 8 dereferenceable_or_null(56) @_ZN10PrefsModel16staticMetaObjectE, ptr noundef nonnull @.str.7, ptr noundef null, i32 noundef -1)
          to label %6 unwind label %.body, !noalias !108

.body:                                            ; preds = %2
  %5 = landingpad { ptr, i32 }
          cleanup
  call void @llvm.lifetime.end.p0(i64 24, ptr nonnull %3) #26, !noalias !108
  call void @_ZN7QStringD2Ev(ptr noundef nonnull align 8 dereferenceable_or_null(24) %4) #26
  call void @_ZN21QSortFilterProxyModelD2Ev(ptr noundef align 8 dereferenceable_or_null(16) %0) #26
  resume { ptr, i32 } %5

6:                                                ; preds = %2
  %7 = load ptr, ptr %3, align 8, !noalias !108
  store ptr %7, ptr %4, align 8, !alias.scope !108
  %8 = getelementptr inbounds nuw i8, ptr %0, i64 24
  %9 = getelementptr inbounds nuw i8, ptr %3, i64 8
  %10 = load ptr, ptr %9, align 8, !noalias !108
  store ptr %10, ptr %8, align 8, !alias.scope !108
  %11 = getelementptr inbounds nuw i8, ptr %0, i64 32
  %12 = getelementptr inbounds nuw i8, ptr %3, i64 16
  %13 = load i64, ptr %12, align 8, !noalias !108
  store i64 %13, ptr %11, align 8, !alias.scope !108
  call void @llvm.lifetime.end.p0(i64 24, ptr nonnull %3) #26, !noalias !108
  ret void
}